target datalayout = "e-m:e-p270:32:32-p271:32:32-p272:64:64-i64:64-i128:128-f80:128-n8:16:32:64-S128"
target triple = "x86_64-pc-linux-gnu"

%"class.(anonymous namespace)::StmtProfilerWithPointers" = type { %"class.(anonymous namespace)::StmtProfiler.base", ptr }
%"class.(anonymous namespace)::StmtProfiler.base" = type <{ ptr, ptr, i8, i8 }>
%"class.(anonymous namespace)::StmtProfiler" = type <{ ptr, ptr, i8, i8, [6 x i8] }>

; Function Attrs: mustprogress nounwind uwtable
define internal void @_ZN12_GLOBAL__N_112StmtProfilerD2Ev(ptr noundef nonnull align 8 dereferenceable(18) %0) unnamed_addr #0 align 2 {
  %2 = alloca ptr, align 8
  store ptr %0, ptr %2, align 8
  ret void
}

; Function Attrs: mustprogress nounwind uwtable
define internal void @_ZN12_GLOBAL__N_112StmtProfilerC2ERN4llvm16FoldingSetNodeIDEbb(ptr noundef nonnull align 8 dereferenceable(18) %0, ptr noundef nonnull align 8 dereferenceable(144) %1, i1 noundef zeroext %2, i1 noundef zeroext %3) unnamed_addr #0 align 2 {
  %5 = alloca ptr, align 8
  %6 = alloca ptr, align 8
  %7 = alloca i8, align 1
  %8 = alloca i8, align 1
  store ptr %0, ptr %5, align 8
  store ptr %1, ptr %6, align 8
  %9 = zext i1 %2 to i8
  store i8 %9, ptr %7, align 1
  %10 = zext i1 %3 to i8
  store i8 %10, ptr %8, align 1
  %11 = load ptr, ptr %5, align 8
  store ptr getelementptr inbounds inrange(-16, 72) ({ [11 x ptr] }, ptr @_ZTVN12_GLOBAL__N_112StmtProfilerE, i32 0, i32 0, i32 2), ptr %11, align 8
  %12 = getelementptr inbounds nuw %"class.(anonymous namespace)::StmtProfiler", ptr %11, i32 0, i32 1
  %13 = load ptr, ptr %6, align 8
  store ptr %13, ptr %12, align 8
  %14 = getelementptr inbounds nuw %"class.(anonymous namespace)::StmtProfiler", ptr %11, i32 0, i32 2
  %15 = load i8, ptr %7, align 1
  %16 = trunc i8 %15 to i1
  %17 = zext i1 %16 to i8
  store i8 %17, ptr %14, align 8
  %18 = getelementptr inbounds nuw %"class.(anonymous namespace)::StmtProfiler", ptr %11, i32 0, i32 3
  %19 = load i8, ptr %8, align 1
  %20 = trunc i8 %19 to i1
  %21 = zext i1 %20 to i8
  store i8 %21, ptr %18, align 1
  ret void
}

; Function Attrs: mustprogress nounwind uwtable
define internal void @_ZN12_GLOBAL__N_124StmtProfilerWithPointersD2Ev(ptr noundef nonnull align 8 dereferenceable(32) %0) unnamed_addr #0 align 2 {
  %2 = alloca ptr, align 8
  store ptr %0, ptr %2, align 8
  %3 = load ptr, ptr %2, align 8
  call void @_ZN12_GLOBAL__N_112StmtProfilerD2Ev(ptr noundef nonnull align 8 dereferenceable(18) %3) #8
  ret void
}

; Function Attrs: mustprogress nounwind uwtable
define internal void @_ZN12_GLOBAL__N_124StmtProfilerWithPointersC2ERN4llvm16FoldingSetNodeIDERKN5clang10ASTContextEbb(ptr noundef nonnull align 8 dereferenceable(32) %0, ptr noundef nonnull align 8 dereferenceable(144) %1, ptr noundef nonnull align 8 dereferenceable(23096) %2, i1 noundef zeroext %3, i1 noundef zeroext %4) unnamed_addr #0 align 2 {
  %6 = alloca ptr, align 8
  %7 = alloca ptr, align 8
  %8 = alloca ptr, align 8
  %9 = alloca i8, align 1
  %10 = alloca i8, align 1
  store ptr %0, ptr %6, align 8
  store ptr %1, ptr %7, align 8
  store ptr %2, ptr %8, align 8
  %11 = zext i1 %3 to i8
  store i8 %11, ptr %9, align 1
  %12 = zext i1 %4 to i8
  store i8 %12, ptr %10, align 1
  %13 = load ptr, ptr %6, align 8
  %14 = load ptr, ptr %7, align 8
  %15 = load i8, ptr %9, align 1
  %16 = trunc i8 %15 to i1
  %17 = load i8, ptr %10, align 1
  %18 = trunc i8 %17 to i1
  call void @_ZN12_GLOBAL__N_112StmtProfilerC2ERN4llvm16FoldingSetNodeIDEbb(ptr noundef nonnull align 8 dereferenceable(18) %13, ptr noundef nonnull align 8 dereferenceable(144) %14, i1 noundef zeroext %16, i1 noundef zeroext %18)
  store ptr getelementptr inbounds inrange(-16, 72) ({ [11 x ptr] }, ptr @_ZTVN12_GLOBAL__N_124StmtProfilerWithPointersE, i32 0, i32 0, i32 2), ptr %13, align 8
  %19 = getelementptr inbounds nuw %"class.(anonymous namespace)::StmtProfilerWithPointers", ptr %13, i32 0, i32 1
  %20 = load ptr, ptr %8, align 8
  store ptr %20, ptr %19, align 8
  ret void
}

; Function Attrs: mustprogress nounwind uwtable
define dso_local void @_ZNK5clang4Stmt7ProfileERN4llvm16FoldingSetNodeIDERKNS_10ASTContextEbb(ptr noundef nonnull align 8 dereferenceable(8) %0, ptr noundef nonnull align 8 dereferenceable(144) %1, ptr noundef nonnull align 8 dereferenceable(23096) %2, i1 noundef zeroext %3, i1 noundef zeroext %4) #0 align 2 {
  %6 = alloca ptr, align 8
  %7 = alloca ptr, align 8
  %8 = alloca ptr, align 8
  %9 = alloca i8, align 1
  %10 = alloca i8, align 1
  %11 = alloca %"class.(anonymous namespace)::StmtProfilerWithPointers", align 8
  store ptr %0, ptr %6, align 8
  store ptr %1, ptr %7, align 8
  store ptr %2, ptr %8, align 8
  %12 = zext i1 %3 to i8
  store i8 %12, ptr %9, align 1
  %13 = zext i1 %4 to i8
  store i8 %13, ptr %10, align 1
  %14 = load ptr, ptr %6, align 8
  %15 = load ptr, ptr %7, align 8
  %16 = load ptr, ptr %8, align 8
  %17 = load i8, ptr %9, align 1
  %18 = trunc i8 %17 to i1
  %19 = load i8, ptr %10, align 1
  %20 = trunc i8 %19 to i1
  call void @_ZN12_GLOBAL__N_124StmtProfilerWithPointersC2ERN4llvm16FoldingSetNodeIDERKN5clang10ASTContextEbb(ptr noundef nonnull align 8 dereferenceable(32) %11, ptr noundef nonnull align 8 dereferenceable(144) %15, ptr noundef nonnull align 8 dereferenceable(23096) %16, i1 noundef zeroext %18, i1 noundef zeroext %20)
  call void @_ZN5clang15StmtVisitorBaseIN4llvm14make_const_ptrEN12_GLOBAL__N_112StmtProfilerEvJEE5VisitEPKNS_4StmtE(ptr noundef nonnull align 1 dereferenceable(1) %11, ptr noundef %14)
  call void @_ZN12_GLOBAL__N_124StmtProfilerWithPointersD2Ev(ptr noundef nonnull align 8 dereferenceable(32) %11) #8
  ret void
}