; Function Attrs: mustprogress nounwind uwtable
define dso_local void @_ZNK5clang4Stmt7ProfileERN4llvm16FoldingSetNodeIDERKNS_10ASTContextEbb(ptr noundef nonnull align 8 dereferenceable(8) %0, ptr noundef nonnull align 8 dereferenceable(144) %1, ptr noundef nonnull align 8 dereferenceable(23096) %2, i1 noundef zeroext %3, i1 noundef zeroext %4) local_unnamed_addr #0 align 2 {
  %6 = alloca %"class.(anonymous namespace)::StmtProfilerWithPointers", align 8
  %7 = zext i1 %3 to i8
  %8 = zext i1 %4 to i8
  %9 = getelementptr inbounds nuw i8, ptr %6, i64 8
  store ptr %1, ptr %9, align 8
  %10 = getelementptr inbounds nuw i8, ptr %6, i64 16
  store i8 %7, ptr %10, align 8
  %11 = getelementptr inbounds nuw i8, ptr %6, i64 17
  store i8 %8, ptr %11, align 1
  store ptr getelementptr inbounds nuw inrange(-16, 72) (i8, ptr @_ZTVN12_GLOBAL__N_124StmtProfilerWithPointersE, i64 16), ptr %6, align 8
  %12 = getelementptr inbounds nuw i8, ptr %6, i64 24
  store ptr %2, ptr %12, align 8
  call fastcc void @_ZN5clang15StmtVisitorBaseIN4llvm14make_const_ptrEN12_GLOBAL__N_112StmtProfilerEvJEE5VisitEPKNS_4StmtE(ptr noundef nonnull align 1 dereferenceable(1) %6, ptr noundef nonnull %0)
  ret void
}